; Function Attrs: mustprogress uwtable
define dso_local void @_ZN3net12HpackDecoderC2Ev(ptr noundef nonnull align 8 dereferenceable(480) %this) unnamed_addr #0 align 2 personality ptr @__gxx_personality_v0 {
entry:
  store ptr getelementptr inbounds ({ [11 x ptr] }, ptr @_ZTVN3net12HpackDecoderE, i64 0, i32 0, i64 2), ptr %this, align 8
  %header_table_ = getelementptr inbounds i8, ptr %this, i64 8
  tail call void @_ZN3net16HpackHeaderTableC1Ev(ptr noundef nonnull align 8 dereferenceable(256) %header_table_)
  %headers_block_buffer_ = getelementptr inbounds i8, ptr %this, i64 264
  tail call void @_ZNSt7__cxx1112basic_stringIcSt11char_traitsIcESaIcEEC1Ev(ptr noundef nonnull align 8 dereferenceable(32) %headers_block_buffer_) #11
  %decoded_block_ = getelementptr inbounds i8, ptr %this, i64 296
  invoke void @_ZN3net15SpdyHeaderBlockC1Ev(ptr noundef nonnull align 8 dereferenceable(88) %decoded_block_)
          to label %invoke.cont3 unwind label %lpad2

invoke.cont3:                                     ; preds = %entry
  %key_buffer_ = getelementptr inbounds i8, ptr %this, i64 384
  tail call void @_ZNSt7__cxx1112basic_stringIcSt11char_traitsIcESaIcEEC1Ev(ptr noundef nonnull align 8 dereferenceable(32) %key_buffer_) #11
  %value_buffer_ = getelementptr inbounds i8, ptr %this, i64 416
  tail call void @_ZNSt7__cxx1112basic_stringIcSt11char_traitsIcESaIcEEC1Ev(ptr noundef nonnull align 8 dereferenceable(32) %value_buffer_) #11
  %handler_ = getelementptr inbounds i8, ptr %this, i64 448
  %max_decode_buffer_size_bytes_ = getelementptr inbounds i8, ptr %this, i64 464
  tail call void @llvm.memset.p0.i64(ptr noundef nonnull align 8 dereferenceable(16) %handler_, i8 0, i64 16, i1 false)
  store i64 32768, ptr %max_decode_buffer_size_bytes_, align 8
  %total_parsed_bytes_ = getelementptr inbounds i8, ptr %this, i64 472
  store i32 0, ptr %total_parsed_bytes_, align 8
  %header_block_started_ = getelementptr inbounds i8, ptr %this, i64 476
  store i8 0, ptr %header_block_started_, align 4
  ret void

lpad2:                                            ; preds = %entry
  %0 = landingpad { ptr, i32 }
          cleanup
  tail call void @_ZNSt7__cxx1112basic_stringIcSt11char_traitsIcESaIcEED1Ev(ptr noundef nonnull align 8 dereferenceable(32) %headers_block_buffer_) #11
  tail call void @_ZN3net16HpackHeaderTableD1Ev(ptr noundef nonnull align 8 dereferenceable(256) %header_table_) #11
  resume { ptr, i32 } %0
}